	.file	"1.c"
	.text
	.section	.rodata
	.align 8
.LC0:
	.string	"Inside main(before calling local_fn):\na = %d\nb = %d\n"
	.align 8
.LC1:
	.string	"Inside main(after calling local_fn):\na = %d\nb = %d\n"
	.text
	.globl	main
	.type	main, @function
main:
.LFB0:
	.cfi_startproc
	pushq	%rbp
	.cfi_def_cfa_offset 16
	.cfi_offset 6, -16
	movq	%rsp, %rbp
	.cfi_def_cfa_register 6
	subq	$16, %rsp
	movl	$1, -8(%rbp)
	movl	$2, -4(%rbp)
	movl	-4(%rbp), %edx
	movl	-8(%rbp), %eax
	movl	%eax, %esi
	leaq	.LC0(%rip), %rax
	movq	%rax, %rdi
	movl	$0, %eax
	call	printf@PLT
	movl	-4(%rbp), %edx
	movl	-8(%rbp), %eax
	movl	%edx, %esi
	movl	%eax, %edi
	call	local_fn
	movl	-4(%rbp), %edx
	movl	-8(%rbp), %eax
	movl	%eax, %esi
	leaq	.LC1(%rip), %rax
	movq	%rax, %rdi
	movl	$0, %eax
	call	printf@PLT
	movl	$0, %eax
	leave
	.cfi_def_cfa 7, 8
	ret
	.cfi_endproc
.LFE0:
	.size	main, .-main
	.section	.rodata
	.align 8
.LC2:
	.string	"Inside local_fn:\na = %d\nb = %d\n"
	.text
	.globl	local_fn
	.type	local_fn, @function
local_fn:
.LFB1:
	.cfi_startproc
	pushq	%rbp
	.cfi_def_cfa_offset 16
	.cfi_offset 6, -16
	movq	%rsp, %rbp
	.cfi_def_cfa_register 6
	subq	$32, %rsp
	movl	%edi, -20(%rbp)
	movl	%esi, -24(%rbp)
	movl	-24(%rbp), %eax
	movl	%eax, -4(%rbp)
	movl	-20(%rbp), %eax
	movl	%eax, -24(%rbp)
	movl	-4(%rbp), %eax
	movl	%eax, -20(%rbp)
	movl	-24(%rbp), %edx
	movl	-20(%rbp), %eax
	movl	%eax, %esi
	leaq	.LC2(%rip), %rax
	movq	%rax, %rdi
	movl	$0, %eax
	call	printf@PLT
	nop
	leave
	.cfi_def_cfa 7, 8
	ret
	.cfi_endproc
.LFE1:
	.size	local_fn, .-local_fn
	.ident	"GCC: (GNU) 11.1.0"
	.section	.note.GNU-stack,"",@progbits
